target datalayout = "e-m:e-p270:32:32-p271:32:32-p272:64:64-i64:64-i128:128-f80:128-n8:16:32:64-S128"
target triple = "x86_64-pc-linux-gnu"

%struct.buf_t = type { i32, ptr, i32, i32, i8, i8 }

@.str.11 = private unnamed_addr constant [46 x i8] c"attempt to xfer mmap()'d buffer not supported\00", align 1
@.str.12 = private unnamed_addr constant [44 x i8] c"attempt to xfer shadow buffer not supported\00", align 1

; Function Attrs: nounwind uwtable
define dso_local ptr @xfer_buf_data(ptr noundef %0) #0 {
  %2 = alloca ptr, align 8
  %3 = alloca ptr, align 8
  store ptr %0, ptr %2, align 8
  call void @llvm.lifetime.start.p0(i64 8, ptr %3) #9
  %4 = load ptr, ptr %2, align 8
  %5 = getelementptr inbounds nuw %struct.buf_t, ptr %4, i32 0, i32 4
  %6 = load i8, ptr %5, align 8, !range !8, !noundef !9
  %7 = trunc i8 %6 to i1
  br i1 %7, label %8, label %9

8:                                                ; preds = %1
  call void (ptr, ...) @fatal_abort(ptr noundef @.str.11) #10
  unreachable

9:                                                ; preds = %1
  %10 = load ptr, ptr %2, align 8
  %11 = getelementptr inbounds nuw %struct.buf_t, ptr %10, i32 0, i32 5
  %12 = load i8, ptr %11, align 1, !range !8, !noundef !9
  %13 = trunc i8 %12 to i1
  br i1 %13, label %14, label %15

14:                                               ; preds = %9
  call void (ptr, ...) @fatal_abort(ptr noundef @.str.12) #10
  unreachable

15:                                               ; preds = %9
  %16 = load ptr, ptr %2, align 8
  %17 = getelementptr inbounds nuw %struct.buf_t, ptr %16, i32 0, i32 1
  %18 = load ptr, ptr %17, align 8
  store ptr %18, ptr %3, align 8
  call void @slurm_xfree(ptr noundef %2)
  %19 = load ptr, ptr %3, align 8
  call void @llvm.lifetime.end.p0(i64 8, ptr %3) #9
  ret ptr %19
}