; Function Attrs: nounwind uwtable
define dso_local ptr @xfer_buf_data(ptr noundef %0) #0 {
  %2 = alloca ptr, align 8
  store ptr %0, ptr %2, align 8
  %3 = getelementptr inbounds nuw i8, ptr %0, i64 24
  %4 = load i8, ptr %3, align 8, !range !8, !noundef !9
  %5 = trunc nuw i8 %4 to i1
  br i1 %5, label %6, label %7

6:                                                ; preds = %1
  tail call void (ptr, ...) @fatal_abort(ptr noundef nonnull @.str.11) #15
  unreachable

7:                                                ; preds = %1
  %8 = getelementptr inbounds nuw i8, ptr %0, i64 25
  %9 = load i8, ptr %8, align 1, !range !8, !noundef !9
  %10 = trunc nuw i8 %9 to i1
  br i1 %10, label %11, label %12

11:                                               ; preds = %7
  tail call void (ptr, ...) @fatal_abort(ptr noundef nonnull @.str.12) #15
  unreachable

12:                                               ; preds = %7
  %13 = getelementptr inbounds nuw i8, ptr %0, i64 8
  %14 = load ptr, ptr %13, align 8
  call void @slurm_xfree(ptr noundef nonnull %2) #14
  ret ptr %14
}